target datalayout = "e-m:e-p270:32:32-p271:32:32-p272:64:64-i64:64-i128:128-f80:128-n8:16:32:64-S128"
target triple = "x86_64-pc-linux-gnu"

%struct.PHP_SHA256_CTX = type { [8 x i32], [2 x i32], [64 x i8] }

@PADDING = internal constant <{ i8, [127 x i8] }> <{ i8 -128, [127 x i8] zeroinitializer }>, align 16

; Function Attrs: nounwind uwtable
define internal void @SHAEncode32(ptr noundef %0, ptr noundef %1, i32 noundef %2) #1 {
  %4 = alloca ptr, align 8
  %5 = alloca ptr, align 8
  %6 = alloca i32, align 4
  %7 = alloca i32, align 4
  %8 = alloca i32, align 4
  store ptr %0, ptr %4, align 8
  store ptr %1, ptr %5, align 8
  store i32 %2, ptr %6, align 4
  store i32 0, ptr %7, align 4
  store i32 0, ptr %8, align 4
  br label %9

9:                                                ; preds = %64, %3
  %10 = load i32, ptr %8, align 4
  %11 = load i32, ptr %6, align 4
  %12 = icmp ult i32 %10, %11
  br i1 %12, label %13, label %69

13:                                               ; preds = %9
  %14 = load ptr, ptr %5, align 8
  %15 = load i32, ptr %7, align 4
  %16 = zext i32 %15 to i64
  %17 = getelementptr inbounds i32, ptr %14, i64 %16
  %18 = load i32, ptr %17, align 4
  %19 = lshr i32 %18, 24
  %20 = and i32 %19, 255
  %21 = trunc i32 %20 to i8
  %22 = load ptr, ptr %4, align 8
  %23 = load i32, ptr %8, align 4
  %24 = zext i32 %23 to i64
  %25 = getelementptr inbounds i8, ptr %22, i64 %24
  store i8 %21, ptr %25, align 1
  %26 = load ptr, ptr %5, align 8
  %27 = load i32, ptr %7, align 4
  %28 = zext i32 %27 to i64
  %29 = getelementptr inbounds i32, ptr %26, i64 %28
  %30 = load i32, ptr %29, align 4
  %31 = lshr i32 %30, 16
  %32 = and i32 %31, 255
  %33 = trunc i32 %32 to i8
  %34 = load ptr, ptr %4, align 8
  %35 = load i32, ptr %8, align 4
  %36 = add i32 %35, 1
  %37 = zext i32 %36 to i64
  %38 = getelementptr inbounds i8, ptr %34, i64 %37
  store i8 %33, ptr %38, align 1
  %39 = load ptr, ptr %5, align 8
  %40 = load i32, ptr %7, align 4
  %41 = zext i32 %40 to i64
  %42 = getelementptr inbounds i32, ptr %39, i64 %41
  %43 = load i32, ptr %42, align 4
  %44 = lshr i32 %43, 8
  %45 = and i32 %44, 255
  %46 = trunc i32 %45 to i8
  %47 = load ptr, ptr %4, align 8
  %48 = load i32, ptr %8, align 4
  %49 = add i32 %48, 2
  %50 = zext i32 %49 to i64
  %51 = getelementptr inbounds i8, ptr %47, i64 %50
  store i8 %46, ptr %51, align 1
  %52 = load ptr, ptr %5, align 8
  %53 = load i32, ptr %7, align 4
  %54 = zext i32 %53 to i64
  %55 = getelementptr inbounds i32, ptr %52, i64 %54
  %56 = load i32, ptr %55, align 4
  %57 = and i32 %56, 255
  %58 = trunc i32 %57 to i8
  %59 = load ptr, ptr %4, align 8
  %60 = load i32, ptr %8, align 4
  %61 = add i32 %60, 3
  %62 = zext i32 %61 to i64
  %63 = getelementptr inbounds i8, ptr %59, i64 %62
  store i8 %58, ptr %63, align 1
  br label %64

64:                                               ; preds = %13
  %65 = load i32, ptr %7, align 4
  %66 = add i32 %65, 1
  store i32 %66, ptr %7, align 4
  %67 = load i32, ptr %8, align 4
  %68 = add i32 %67, 4
  store i32 %68, ptr %8, align 4
  br label %9

69:                                               ; preds = %9
  ret void
}

; Function Attrs: nounwind uwtable
define void @PHP_SHA256Update(ptr noundef %0, ptr noundef %1, i64 noundef %2) #1 {
  %4 = alloca ptr, align 8
  %5 = alloca ptr, align 8
  %6 = alloca i64, align 8
  %7 = alloca i32, align 4
  %8 = alloca i32, align 4
  %9 = alloca i64, align 8
  store ptr %0, ptr %4, align 8
  store ptr %1, ptr %5, align 8
  store i64 %2, ptr %6, align 8
  %10 = load ptr, ptr %4, align 8
  %11 = getelementptr inbounds %struct.PHP_SHA256_CTX, ptr %10, i32 0, i32 1
  %12 = getelementptr inbounds [2 x i32], ptr %11, i64 0, i64 0
  %13 = load i32, ptr %12, align 4
  %14 = lshr i32 %13, 3
  %15 = and i32 %14, 63
  store i32 %15, ptr %7, align 4
  %16 = load i64, ptr %6, align 8
  %17 = trunc i64 %16 to i32
  %18 = shl i32 %17, 3
  %19 = load ptr, ptr %4, align 8
  %20 = getelementptr inbounds %struct.PHP_SHA256_CTX, ptr %19, i32 0, i32 1
  %21 = getelementptr inbounds [2 x i32], ptr %20, i64 0, i64 0
  %22 = load i32, ptr %21, align 4
  %23 = add i32 %22, %18
  store i32 %23, ptr %21, align 4
  %24 = load i64, ptr %6, align 8
  %25 = trunc i64 %24 to i32
  %26 = shl i32 %25, 3
  %27 = icmp ult i32 %23, %26
  br i1 %27, label %28, label %34

28:                                               ; preds = %3
  %29 = load ptr, ptr %4, align 8
  %30 = getelementptr inbounds %struct.PHP_SHA256_CTX, ptr %29, i32 0, i32 1
  %31 = getelementptr inbounds [2 x i32], ptr %30, i64 0, i64 1
  %32 = load i32, ptr %31, align 4
  %33 = add i32 %32, 1
  store i32 %33, ptr %31, align 4
  br label %34

34:                                               ; preds = %28, %3
  %35 = load i64, ptr %6, align 8
  %36 = lshr i64 %35, 29
  %37 = trunc i64 %36 to i32
  %38 = load ptr, ptr %4, align 8
  %39 = getelementptr inbounds %struct.PHP_SHA256_CTX, ptr %38, i32 0, i32 1
  %40 = getelementptr inbounds [2 x i32], ptr %39, i64 0, i64 1
  %41 = load i32, ptr %40, align 4
  %42 = add i32 %41, %37
  store i32 %42, ptr %40, align 4
  %43 = load i32, ptr %7, align 4
  %44 = sub i32 64, %43
  store i32 %44, ptr %8, align 4
  %45 = load i64, ptr %6, align 8
  %46 = load i32, ptr %8, align 4
  %47 = zext i32 %46 to i64
  %48 = icmp uge i64 %45, %47
  br i1 %48, label %49, label %82

49:                                               ; preds = %34
  %50 = load ptr, ptr %4, align 8
  %51 = getelementptr inbounds %struct.PHP_SHA256_CTX, ptr %50, i32 0, i32 2
  %52 = load i32, ptr %7, align 4
  %53 = zext i32 %52 to i64
  %54 = getelementptr inbounds [64 x i8], ptr %51, i64 0, i64 %53
  %55 = load ptr, ptr %5, align 8
  %56 = load i32, ptr %8, align 4
  %57 = zext i32 %56 to i64
  call void @llvm.memcpy.p0.p0.i64(ptr align 1 %54, ptr align 1 %55, i64 %57, i1 false)
  %58 = load ptr, ptr %4, align 8
  %59 = getelementptr inbounds %struct.PHP_SHA256_CTX, ptr %58, i32 0, i32 0
  %60 = getelementptr inbounds [8 x i32], ptr %59, i64 0, i64 0
  %61 = load ptr, ptr %4, align 8
  %62 = getelementptr inbounds %struct.PHP_SHA256_CTX, ptr %61, i32 0, i32 2
  %63 = getelementptr inbounds [64 x i8], ptr %62, i64 0, i64 0
  call void @SHA256Transform(ptr noundef %60, ptr noundef %63)
  %64 = load i32, ptr %8, align 4
  %65 = zext i32 %64 to i64
  store i64 %65, ptr %9, align 8
  br label %66

66:                                               ; preds = %78, %49
  %67 = load i64, ptr %9, align 8
  %68 = add i64 %67, 63
  %69 = load i64, ptr %6, align 8
  %70 = icmp ult i64 %68, %69
  br i1 %70, label %71, label %81

71:                                               ; preds = %66
  %72 = load ptr, ptr %4, align 8
  %73 = getelementptr inbounds %struct.PHP_SHA256_CTX, ptr %72, i32 0, i32 0
  %74 = getelementptr inbounds [8 x i32], ptr %73, i64 0, i64 0
  %75 = load ptr, ptr %5, align 8
  %76 = load i64, ptr %9, align 8
  %77 = getelementptr inbounds i8, ptr %75, i64 %76
  call void @SHA256Transform(ptr noundef %74, ptr noundef %77)
  br label %78

78:                                               ; preds = %71
  %79 = load i64, ptr %9, align 8
  %80 = add i64 %79, 64
  store i64 %80, ptr %9, align 8
  br label %66

81:                                               ; preds = %66
  store i32 0, ptr %7, align 4
  br label %83

82:                                               ; preds = %34
  store i64 0, ptr %9, align 8
  br label %83

83:                                               ; preds = %82, %81
  %84 = load ptr, ptr %4, align 8
  %85 = getelementptr inbounds %struct.PHP_SHA256_CTX, ptr %84, i32 0, i32 2
  %86 = load i32, ptr %7, align 4
  %87 = zext i32 %86 to i64
  %88 = getelementptr inbounds [64 x i8], ptr %85, i64 0, i64 %87
  %89 = load ptr, ptr %5, align 8
  %90 = load i64, ptr %9, align 8
  %91 = getelementptr inbounds i8, ptr %89, i64 %90
  %92 = load i64, ptr %6, align 8
  %93 = load i64, ptr %9, align 8
  %94 = sub i64 %92, %93
  call void @llvm.memcpy.p0.p0.i64(ptr align 1 %88, ptr align 1 %91, i64 %94, i1 false)
  ret void
}

; Function Attrs: nounwind uwtable
define void @PHP_SHA256Final(ptr noundef %0, ptr noundef %1) #1 {
  %3 = alloca ptr, align 8
  %4 = alloca ptr, align 8
  %5 = alloca [8 x i8], align 1
  %6 = alloca i32, align 4
  %7 = alloca i32, align 4
  store ptr %0, ptr %3, align 8
  store ptr %1, ptr %4, align 8
  %8 = load ptr, ptr %4, align 8
  %9 = getelementptr inbounds %struct.PHP_SHA256_CTX, ptr %8, i32 0, i32 1
  %10 = getelementptr inbounds [2 x i32], ptr %9, i64 0, i64 0
  %11 = load i32, ptr %10, align 4
  %12 = and i32 %11, 255
  %13 = trunc i32 %12 to i8
  %14 = getelementptr inbounds [8 x i8], ptr %5, i64 0, i64 7
  store i8 %13, ptr %14, align 1
  %15 = load ptr, ptr %4, align 8
  %16 = getelementptr inbounds %struct.PHP_SHA256_CTX, ptr %15, i32 0, i32 1
  %17 = getelementptr inbounds [2 x i32], ptr %16, i64 0, i64 0
  %18 = load i32, ptr %17, align 4
  %19 = lshr i32 %18, 8
  %20 = and i32 %19, 255
  %21 = trunc i32 %20 to i8
  %22 = getelementptr inbounds [8 x i8], ptr %5, i64 0, i64 6
  store i8 %21, ptr %22, align 1
  %23 = load ptr, ptr %4, align 8
  %24 = getelementptr inbounds %struct.PHP_SHA256_CTX, ptr %23, i32 0, i32 1
  %25 = getelementptr inbounds [2 x i32], ptr %24, i64 0, i64 0
  %26 = load i32, ptr %25, align 4
  %27 = lshr i32 %26, 16
  %28 = and i32 %27, 255
  %29 = trunc i32 %28 to i8
  %30 = getelementptr inbounds [8 x i8], ptr %5, i64 0, i64 5
  store i8 %29, ptr %30, align 1
  %31 = load ptr, ptr %4, align 8
  %32 = getelementptr inbounds %struct.PHP_SHA256_CTX, ptr %31, i32 0, i32 1
  %33 = getelementptr inbounds [2 x i32], ptr %32, i64 0, i64 0
  %34 = load i32, ptr %33, align 4
  %35 = lshr i32 %34, 24
  %36 = and i32 %35, 255
  %37 = trunc i32 %36 to i8
  %38 = getelementptr inbounds [8 x i8], ptr %5, i64 0, i64 4
  store i8 %37, ptr %38, align 1
  %39 = load ptr, ptr %4, align 8
  %40 = getelementptr inbounds %struct.PHP_SHA256_CTX, ptr %39, i32 0, i32 1
  %41 = getelementptr inbounds [2 x i32], ptr %40, i64 0, i64 1
  %42 = load i32, ptr %41, align 4
  %43 = and i32 %42, 255
  %44 = trunc i32 %43 to i8
  %45 = getelementptr inbounds [8 x i8], ptr %5, i64 0, i64 3
  store i8 %44, ptr %45, align 1
  %46 = load ptr, ptr %4, align 8
  %47 = getelementptr inbounds %struct.PHP_SHA256_CTX, ptr %46, i32 0, i32 1
  %48 = getelementptr inbounds [2 x i32], ptr %47, i64 0, i64 1
  %49 = load i32, ptr %48, align 4
  %50 = lshr i32 %49, 8
  %51 = and i32 %50, 255
  %52 = trunc i32 %51 to i8
  %53 = getelementptr inbounds [8 x i8], ptr %5, i64 0, i64 2
  store i8 %52, ptr %53, align 1
  %54 = load ptr, ptr %4, align 8
  %55 = getelementptr inbounds %struct.PHP_SHA256_CTX, ptr %54, i32 0, i32 1
  %56 = getelementptr inbounds [2 x i32], ptr %55, i64 0, i64 1
  %57 = load i32, ptr %56, align 4
  %58 = lshr i32 %57, 16
  %59 = and i32 %58, 255
  %60 = trunc i32 %59 to i8
  %61 = getelementptr inbounds [8 x i8], ptr %5, i64 0, i64 1
  store i8 %60, ptr %61, align 1
  %62 = load ptr, ptr %4, align 8
  %63 = getelementptr inbounds %struct.PHP_SHA256_CTX, ptr %62, i32 0, i32 1
  %64 = getelementptr inbounds [2 x i32], ptr %63, i64 0, i64 1
  %65 = load i32, ptr %64, align 4
  %66 = lshr i32 %65, 24
  %67 = and i32 %66, 255
  %68 = trunc i32 %67 to i8
  %69 = getelementptr inbounds [8 x i8], ptr %5, i64 0, i64 0
  store i8 %68, ptr %69, align 1
  %70 = load ptr, ptr %4, align 8
  %71 = getelementptr inbounds %struct.PHP_SHA256_CTX, ptr %70, i32 0, i32 1
  %72 = getelementptr inbounds [2 x i32], ptr %71, i64 0, i64 0
  %73 = load i32, ptr %72, align 4
  %74 = lshr i32 %73, 3
  %75 = and i32 %74, 63
  store i32 %75, ptr %6, align 4
  %76 = load i32, ptr %6, align 4
  %77 = icmp ult i32 %76, 56
  br i1 %77, label %78, label %81

78:                                               ; preds = %2
  %79 = load i32, ptr %6, align 4
  %80 = sub i32 56, %79
  br label %84

81:                                               ; preds = %2
  %82 = load i32, ptr %6, align 4
  %83 = sub i32 120, %82
  br label %84

84:                                               ; preds = %81, %78
  %85 = phi i32 [ %80, %78 ], [ %83, %81 ]
  store i32 %85, ptr %7, align 4
  %86 = load ptr, ptr %4, align 8
  %87 = load i32, ptr %7, align 4
  %88 = zext i32 %87 to i64
  call void @PHP_SHA256Update(ptr noundef %86, ptr noundef @PADDING, i64 noundef %88)
  %89 = load ptr, ptr %4, align 8
  %90 = getelementptr inbounds [8 x i8], ptr %5, i64 0, i64 0
  call void @PHP_SHA256Update(ptr noundef %89, ptr noundef %90, i64 noundef 8)
  %91 = load ptr, ptr %3, align 8
  %92 = load ptr, ptr %4, align 8
  %93 = getelementptr inbounds %struct.PHP_SHA256_CTX, ptr %92, i32 0, i32 0
  %94 = getelementptr inbounds [8 x i32], ptr %93, i64 0, i64 0
  call void @SHAEncode32(ptr noundef %91, ptr noundef %94, i32 noundef 32)
  %95 = load ptr, ptr %4, align 8
  call void @explicit_bzero(ptr noundef %95, i64 noundef 104) #4
  ret void
}