; Function Attrs: nounwind uwtable
define void @PHP_SHA256Final(ptr nocapture noundef writeonly %0, ptr noundef %1) #2 {
  %3 = alloca [8 x i8], align 1
  %4 = getelementptr inbounds i8, ptr %1, i64 32
  %5 = load i32, ptr %4, align 4
  %6 = trunc i32 %5 to i8
  %7 = getelementptr inbounds i8, ptr %3, i64 7
  store i8 %6, ptr %7, align 1
  %8 = lshr i32 %5, 8
  %9 = trunc i32 %8 to i8
  %10 = getelementptr inbounds i8, ptr %3, i64 6
  store i8 %9, ptr %10, align 1
  %11 = lshr i32 %5, 16
  %12 = trunc i32 %11 to i8
  %13 = getelementptr inbounds i8, ptr %3, i64 5
  store i8 %12, ptr %13, align 1
  %14 = lshr i32 %5, 24
  %15 = trunc i32 %14 to i8
  %16 = getelementptr inbounds i8, ptr %3, i64 4
  store i8 %15, ptr %16, align 1
  %17 = getelementptr inbounds i8, ptr %1, i64 36
  %18 = load i32, ptr %17, align 4
  %19 = trunc i32 %18 to i8
  %20 = getelementptr inbounds i8, ptr %3, i64 3
  store i8 %19, ptr %20, align 1
  %21 = lshr i32 %18, 8
  %22 = trunc i32 %21 to i8
  %23 = getelementptr inbounds i8, ptr %3, i64 2
  store i8 %22, ptr %23, align 1
  %24 = lshr i32 %18, 16
  %25 = trunc i32 %24 to i8
  %26 = getelementptr inbounds i8, ptr %3, i64 1
  store i8 %25, ptr %26, align 1
  %27 = lshr i32 %18, 24
  %28 = trunc i32 %27 to i8
  store i8 %28, ptr %3, align 1
  %29 = lshr i32 %5, 3
  %30 = and i32 %29, 63
  %31 = icmp ult i32 %30, 56
  %.v = select i1 %31, i32 56, i32 120
  %32 = sub nsw i32 %.v, %30
  %33 = zext i32 %32 to i64
  %34 = shl nsw i32 %32, 3
  %35 = add i32 %34, %5
  store i32 %35, ptr %4, align 4
  %36 = icmp ult i32 %35, %34
  %37 = zext i1 %36 to i32
  %38 = lshr i32 %32, 29
  %39 = add i32 %38, %18
  %40 = add i32 %39, %37
  store i32 %40, ptr %17, align 4
  %41 = sub nuw nsw i32 64, %30
  %.not.i = icmp ugt i32 %41, %32
  br i1 %.not.i, label %53, label %42

42:                                               ; preds = %2
  %43 = zext nneg i32 %41 to i64
  %44 = getelementptr inbounds i8, ptr %1, i64 40
  %45 = zext nneg i32 %30 to i64
  %46 = getelementptr inbounds [64 x i8], ptr %44, i64 0, i64 %45
  tail call void @llvm.memcpy.p0.p0.i64(ptr noundef nonnull align 1 dereferenceable(1) %46, ptr noundef nonnull align 16 dereferenceable(1) @PADDING, i64 %43, i1 false)
  tail call fastcc void @SHA256Transform(ptr noundef nonnull %1, ptr noundef nonnull %44)
  %47 = add nuw nsw i64 %43, 63
  %48 = icmp ult i64 %47, %33
  br i1 %48, label %.lr.ph.i, label %PHP_SHA256Update.exit

.lr.ph.i:                                         ; preds = %42, %.lr.ph.i
  %.031.i = phi i64 [ %50, %.lr.ph.i ], [ %43, %42 ]
  %49 = getelementptr inbounds i8, ptr @PADDING, i64 %.031.i
  tail call fastcc void @SHA256Transform(ptr noundef %1, ptr noundef nonnull %49)
  %50 = add nuw nsw i64 %.031.i, 64
  %51 = add nuw nsw i64 %.031.i, 127
  %52 = icmp ult i64 %51, %33
  br i1 %52, label %.lr.ph.i, label %PHP_SHA256Update.exit

53:                                               ; preds = %2
  %54 = zext nneg i32 %30 to i64
  br label %PHP_SHA256Update.exit

PHP_SHA256Update.exit:                            ; preds = %.lr.ph.i, %42, %53
  %.028.i = phi i64 [ %54, %53 ], [ 0, %42 ], [ 0, %.lr.ph.i ]
  %.1.i = phi i64 [ 0, %53 ], [ %43, %42 ], [ %50, %.lr.ph.i ]
  %55 = getelementptr inbounds i8, ptr %1, i64 40
  %56 = getelementptr inbounds [64 x i8], ptr %55, i64 0, i64 %.028.i
  %57 = getelementptr inbounds i8, ptr @PADDING, i64 %.1.i
  %58 = sub i64 %33, %.1.i
  tail call void @llvm.memcpy.p0.p0.i64(ptr nonnull align 1 %56, ptr nonnull align 1 %57, i64 %58, i1 false)
  %59 = load i32, ptr %4, align 4
  %60 = lshr i32 %59, 3
  %61 = and i32 %60, 63
  %62 = add i32 %59, 64
  store i32 %62, ptr %4, align 4
  %63 = icmp ugt i32 %59, -65
  %64 = load i32, ptr %17, align 4
  %65 = zext i1 %63 to i32
  %66 = add i32 %64, %65
  store i32 %66, ptr %17, align 4
  %.not.i17 = icmp ult i32 %61, 56
  br i1 %.not.i17, label %72, label %67

67:                                               ; preds = %PHP_SHA256Update.exit
  %68 = sub nuw nsw i32 64, %61
  %69 = zext nneg i32 %68 to i64
  %70 = zext nneg i32 %61 to i64
  %71 = getelementptr inbounds [64 x i8], ptr %55, i64 0, i64 %70
  call void @llvm.memcpy.p0.p0.i64(ptr noundef nonnull align 1 dereferenceable(1) %71, ptr noundef nonnull align 1 dereferenceable(1) %3, i64 %69, i1 false)
  tail call fastcc void @SHA256Transform(ptr noundef nonnull %1, ptr noundef nonnull %55)
  br label %PHP_SHA256Update.exit20

72:                                               ; preds = %PHP_SHA256Update.exit
  %73 = zext nneg i32 %61 to i64
  br label %PHP_SHA256Update.exit20

PHP_SHA256Update.exit20:                          ; preds = %67, %72
  %.028.i18 = phi i64 [ %73, %72 ], [ 0, %67 ]
  %.1.i19 = phi i64 [ 0, %72 ], [ %69, %67 ]
  %74 = getelementptr inbounds [64 x i8], ptr %55, i64 0, i64 %.028.i18
  %75 = getelementptr inbounds i8, ptr %3, i64 %.1.i19
  %76 = sub nuw nsw i64 8, %.1.i19
  call void @llvm.memcpy.p0.p0.i64(ptr nonnull align 1 %74, ptr nonnull align 1 %75, i64 %76, i1 false)
  br label %.lr.ph.i21

.lr.ph.i21:                                       ; preds = %.lr.ph.i21, %PHP_SHA256Update.exit20
  %indvars.iv22.i = phi i64 [ 0, %PHP_SHA256Update.exit20 ], [ %indvars.iv.next23.i, %.lr.ph.i21 ]
  %indvars.iv.i = phi i64 [ 0, %PHP_SHA256Update.exit20 ], [ %indvars.iv.next.i, %.lr.ph.i21 ]
  %77 = getelementptr inbounds i32, ptr %1, i64 %indvars.iv22.i
  %78 = load i32, ptr %77, align 4
  %79 = lshr i32 %78, 24
  %80 = trunc i32 %79 to i8
  %81 = getelementptr inbounds i8, ptr %0, i64 %indvars.iv.i
  store i8 %80, ptr %81, align 1
  %82 = load i32, ptr %77, align 4
  %83 = lshr i32 %82, 16
  %84 = trunc i32 %83 to i8
  %85 = or disjoint i64 %indvars.iv.i, 1
  %86 = getelementptr inbounds i8, ptr %0, i64 %85
  store i8 %84, ptr %86, align 1
  %87 = load i32, ptr %77, align 4
  %88 = lshr i32 %87, 8
  %89 = trunc i32 %88 to i8
  %90 = or disjoint i64 %indvars.iv.i, 2
  %91 = getelementptr inbounds i8, ptr %0, i64 %90
  store i8 %89, ptr %91, align 1
  %92 = load i32, ptr %77, align 4
  %93 = trunc i32 %92 to i8
  %94 = or disjoint i64 %indvars.iv.i, 3
  %95 = getelementptr inbounds i8, ptr %0, i64 %94
  store i8 %93, ptr %95, align 1
  %indvars.iv.next23.i = add nuw nsw i64 %indvars.iv22.i, 1
  %indvars.iv.next.i = add nuw nsw i64 %indvars.iv.i, 4
  %exitcond.not.i = icmp eq i64 %indvars.iv.next23.i, 8
  br i1 %exitcond.not.i, label %SHAEncode32.exit, label %.lr.ph.i21

SHAEncode32.exit:                                 ; preds = %.lr.ph.i21
  tail call void @explicit_bzero(ptr noundef nonnull %1, i64 noundef 104) #7
  ret void
}